; ModuleID = '20/35.c'
source_filename = "20/35.c"
target datalayout = "e-m:e-p270:32:32-p271:32:32-p272:64:64-i64:64-f80:128-n8:16:32:64-S128"
target triple = "x86_64-pc-linux-gnu"

@.str = private unnamed_addr constant [3 x i8] c"%c\00", align 1
@.str.1 = private unnamed_addr constant [7 x i8] c"%c%c%c\00", align 1
@.str.2 = private unnamed_addr constant [4 x i8] c"%c\0A\00", align 1

; Function Attrs: noinline nounwind uwtable
define dso_local void @main() #0 {
  %1 = alloca [20 x [14 x i8]], align 16
  %2 = alloca i32, align 4
  %3 = alloca i32, align 4
  %4 = alloca i32, align 4
  %5 = alloca i32, align 4
  %6 = alloca i32, align 4
  %7 = alloca i8, align 1
  store i32 0, i32* %3, align 4
  store i32 0, i32* %3, align 4
  br label %8

8:                                                ; preds = %26, %0
  %9 = load i32, i32* %3, align 4
  %10 = icmp slt i32 %9, 20
  br i1 %10, label %11, label %29

11:                                               ; preds = %8
  store i32 0, i32* %4, align 4
  br label %12

12:                                               ; preds = %22, %11
  %13 = load i32, i32* %4, align 4
  %14 = icmp slt i32 %13, 14
  br i1 %14, label %15, label %25

15:                                               ; preds = %12
  %16 = load i32, i32* %3, align 4
  %17 = sext i32 %16 to i64
  %18 = getelementptr inbounds [20 x [14 x i8]], [20 x [14 x i8]]* %1, i64 0, i64 %17
  %19 = load i32, i32* %4, align 4
  %20 = sext i32 %19 to i64
  %21 = getelementptr inbounds [14 x i8], [14 x i8]* %18, i64 0, i64 %20
  store i8 0, i8* %21, align 1
  br label %22

22:                                               ; preds = %15
  %23 = load i32, i32* %4, align 4
  %24 = add nsw i32 %23, 1
  store i32 %24, i32* %4, align 4
  br label %12

25:                                               ; preds = %12
  br label %26

26:                                               ; preds = %25
  %27 = load i32, i32* %3, align 4
  %28 = add nsw i32 %27, 1
  store i32 %28, i32* %3, align 4
  br label %8

29:                                               ; preds = %8
  store i32 0, i32* %3, align 4
  br label %30

30:                                               ; preds = %46, %29
  %31 = load i32, i32* %3, align 4
  %32 = sext i32 %31 to i64
  %33 = getelementptr inbounds [20 x [14 x i8]], [20 x [14 x i8]]* %1, i64 0, i64 %32
  %34 = getelementptr inbounds [14 x i8], [14 x i8]* %33, i64 0, i64 0
  %35 = call i32 (i8*, ...) bitcast (i32 (...)* @gets to i32 (i8*, ...)*)(i8* %34)
  %36 = load i32, i32* %3, align 4
  store i32 %36, i32* %2, align 4
  %37 = load i32, i32* %3, align 4
  %38 = sext i32 %37 to i64
  %39 = getelementptr inbounds [20 x [14 x i8]], [20 x [14 x i8]]* %1, i64 0, i64 %38
  %40 = getelementptr inbounds [14 x i8], [14 x i8]* %39, i64 0, i64 0
  %41 = load i8, i8* %40, align 2
  %42 = sext i8 %41 to i32
  %43 = icmp eq i32 %42, 0
  br i1 %43, label %44, label %45

44:                                               ; preds = %30
  br label %49

45:                                               ; preds = %30
  br label %46

46:                                               ; preds = %45
  %47 = load i32, i32* %3, align 4
  %48 = add nsw i32 %47, 1
  store i32 %48, i32* %3, align 4
  br label %30

49:                                               ; preds = %44
  store i32 0, i32* %3, align 4
  br label %50

50:                                               ; preds = %189, %49
  %51 = load i32, i32* %3, align 4
  %52 = load i32, i32* %2, align 4
  %53 = icmp slt i32 %51, %52
  br i1 %53, label %54, label %192

54:                                               ; preds = %50
  store i32 0, i32* %5, align 4
  store i32 0, i32* %6, align 4
  store i32 0, i32* %4, align 4
  br label %55

55:                                               ; preds = %71, %54
  %56 = load i32, i32* %4, align 4
  %57 = icmp slt i32 %56, 14
  br i1 %57, label %58, label %74

58:                                               ; preds = %55
  %59 = load i32, i32* %3, align 4
  %60 = sext i32 %59 to i64
  %61 = getelementptr inbounds [20 x [14 x i8]], [20 x [14 x i8]]* %1, i64 0, i64 %60
  %62 = load i32, i32* %4, align 4
  %63 = sext i32 %62 to i64
  %64 = getelementptr inbounds [14 x i8], [14 x i8]* %61, i64 0, i64 %63
  %65 = load i8, i8* %64, align 1
  %66 = sext i8 %65 to i32
  %67 = icmp eq i32 %66, 32
  br i1 %67, label %68, label %70

68:                                               ; preds = %58
  %69 = load i32, i32* %4, align 4
  store i32 %69, i32* %5, align 4
  br label %74

70:                                               ; preds = %58
  br label %71

71:                                               ; preds = %70
  %72 = load i32, i32* %4, align 4
  %73 = add nsw i32 %72, 1
  store i32 %73, i32* %4, align 4
  br label %55

74:                                               ; preds = %68, %55
  %75 = load i32, i32* %3, align 4
  %76 = sext i32 %75 to i64
  %77 = getelementptr inbounds [20 x [14 x i8]], [20 x [14 x i8]]* %1, i64 0, i64 %76
  %78 = getelementptr inbounds [14 x i8], [14 x i8]* %77, i64 0, i64 0
  %79 = load i8, i8* %78, align 2
  store i8 %79, i8* %7, align 1
  store i32 1, i32* %4, align 4
  br label %80

80:                                               ; preds = %106, %74
  %81 = load i32, i32* %4, align 4
  %82 = load i32, i32* %5, align 4
  %83 = icmp slt i32 %81, %82
  br i1 %83, label %84, label %109

84:                                               ; preds = %80
  %85 = load i32, i32* %3, align 4
  %86 = sext i32 %85 to i64
  %87 = getelementptr inbounds [20 x [14 x i8]], [20 x [14 x i8]]* %1, i64 0, i64 %86
  %88 = load i32, i32* %4, align 4
  %89 = sext i32 %88 to i64
  %90 = getelementptr inbounds [14 x i8], [14 x i8]* %87, i64 0, i64 %89
  %91 = load i8, i8* %90, align 1
  %92 = sext i8 %91 to i32
  %93 = load i8, i8* %7, align 1
  %94 = sext i8 %93 to i32
  %95 = icmp sgt i32 %92, %94
  br i1 %95, label %96, label %105

96:                                               ; preds = %84
  %97 = load i32, i32* %3, align 4
  %98 = sext i32 %97 to i64
  %99 = getelementptr inbounds [20 x [14 x i8]], [20 x [14 x i8]]* %1, i64 0, i64 %98
  %100 = load i32, i32* %4, align 4
  %101 = sext i32 %100 to i64
  %102 = getelementptr inbounds [14 x i8], [14 x i8]* %99, i64 0, i64 %101
  %103 = load i8, i8* %102, align 1
  store i8 %103, i8* %7, align 1
  %104 = load i32, i32* %4, align 4
  store i32 %104, i32* %6, align 4
  br label %105

105:                                              ; preds = %96, %84
  br label %106

106:                                              ; preds = %105
  %107 = load i32, i32* %4, align 4
  %108 = add nsw i32 %107, 1
  store i32 %108, i32* %4, align 4
  br label %80

109:                                              ; preds = %80
  store i32 0, i32* %4, align 4
  br label %110

110:                                              ; preds = %124, %109
  %111 = load i32, i32* %4, align 4
  %112 = load i32, i32* %6, align 4
  %113 = icmp sle i32 %111, %112
  br i1 %113, label %114, label %127

114:                                              ; preds = %110
  %115 = load i32, i32* %3, align 4
  %116 = sext i32 %115 to i64
  %117 = getelementptr inbounds [20 x [14 x i8]], [20 x [14 x i8]]* %1, i64 0, i64 %116
  %118 = load i32, i32* %4, align 4
  %119 = sext i32 %118 to i64
  %120 = getelementptr inbounds [14 x i8], [14 x i8]* %117, i64 0, i64 %119
  %121 = load i8, i8* %120, align 1
  %122 = sext i8 %121 to i32
  %123 = call i32 (i8*, ...) @printf(i8* getelementptr inbounds ([3 x i8], [3 x i8]* @.str, i64 0, i64 0), i32 %122)
  br label %124

124:                                              ; preds = %114
  %125 = load i32, i32* %4, align 4
  %126 = add nsw i32 %125, 1
  store i32 %126, i32* %4, align 4
  br label %110

127:                                              ; preds = %110
  %128 = load i32, i32* %3, align 4
  %129 = sext i32 %128 to i64
  %130 = getelementptr inbounds [20 x [14 x i8]], [20 x [14 x i8]]* %1, i64 0, i64 %129
  %131 = load i32, i32* %5, align 4
  %132 = add nsw i32 %131, 1
  %133 = sext i32 %132 to i64
  %134 = getelementptr inbounds [14 x i8], [14 x i8]* %130, i64 0, i64 %133
  %135 = load i8, i8* %134, align 1
  %136 = sext i8 %135 to i32
  %137 = load i32, i32* %3, align 4
  %138 = sext i32 %137 to i64
  %139 = getelementptr inbounds [20 x [14 x i8]], [20 x [14 x i8]]* %1, i64 0, i64 %138
  %140 = load i32, i32* %5, align 4
  %141 = add nsw i32 %140, 2
  %142 = sext i32 %141 to i64
  %143 = getelementptr inbounds [14 x i8], [14 x i8]* %139, i64 0, i64 %142
  %144 = load i8, i8* %143, align 1
  %145 = sext i8 %144 to i32
  %146 = load i32, i32* %3, align 4
  %147 = sext i32 %146 to i64
  %148 = getelementptr inbounds [20 x [14 x i8]], [20 x [14 x i8]]* %1, i64 0, i64 %147
  %149 = load i32, i32* %5, align 4
  %150 = add nsw i32 %149, 3
  %151 = sext i32 %150 to i64
  %152 = getelementptr inbounds [14 x i8], [14 x i8]* %148, i64 0, i64 %151
  %153 = load i8, i8* %152, align 1
  %154 = sext i8 %153 to i32
  %155 = call i32 (i8*, ...) @printf(i8* getelementptr inbounds ([7 x i8], [7 x i8]* @.str.1, i64 0, i64 0), i32 %136, i32 %145, i32 %154)
  store i32 1, i32* %4, align 4
  br label %156

156:                                              ; preds = %175, %127
  %157 = load i32, i32* %4, align 4
  %158 = load i32, i32* %5, align 4
  %159 = load i32, i32* %6, align 4
  %160 = sub nsw i32 %158, %159
  %161 = sub nsw i32 %160, 1
  %162 = icmp slt i32 %157, %161
  br i1 %162, label %163, label %178

163:                                              ; preds = %156
  %164 = load i32, i32* %3, align 4
  %165 = sext i32 %164 to i64
  %166 = getelementptr inbounds [20 x [14 x i8]], [20 x [14 x i8]]* %1, i64 0, i64 %165
  %167 = load i32, i32* %6, align 4
  %168 = load i32, i32* %4, align 4
  %169 = add nsw i32 %167, %168
  %170 = sext i32 %169 to i64
  %171 = getelementptr inbounds [14 x i8], [14 x i8]* %166, i64 0, i64 %170
  %172 = load i8, i8* %171, align 1
  %173 = sext i8 %172 to i32
  %174 = call i32 (i8*, ...) @printf(i8* getelementptr inbounds ([3 x i8], [3 x i8]* @.str, i64 0, i64 0), i32 %173)
  br label %175

175:                                              ; preds = %163
  %176 = load i32, i32* %4, align 4
  %177 = add nsw i32 %176, 1
  store i32 %177, i32* %4, align 4
  br label %156

178:                                              ; preds = %156
  %179 = load i32, i32* %3, align 4
  %180 = sext i32 %179 to i64
  %181 = getelementptr inbounds [20 x [14 x i8]], [20 x [14 x i8]]* %1, i64 0, i64 %180
  %182 = load i32, i32* %5, align 4
  %183 = sub nsw i32 %182, 1
  %184 = sext i32 %183 to i64
  %185 = getelementptr inbounds [14 x i8], [14 x i8]* %181, i64 0, i64 %184
  %186 = load i8, i8* %185, align 1
  %187 = sext i8 %186 to i32
  %188 = call i32 (i8*, ...) @printf(i8* getelementptr inbounds ([4 x i8], [4 x i8]* @.str.2, i64 0, i64 0), i32 %187)
  br label %189

189:                                              ; preds = %178
  %190 = load i32, i32* %3, align 4
  %191 = add nsw i32 %190, 1
  store i32 %191, i32* %3, align 4
  br label %50

192:                                              ; preds = %50
  ret void
}

declare dso_local i32 @gets(...) #1

declare dso_local i32 @printf(i8*, ...) #1


!llvm.module.flags = !{!0}
!llvm.ident = !{!1}

!0 = !{i32 1, !"wchar_size", i32 4}
!1 = !{!"clang version 10.0.0-4ubuntu1 "}
